
vmlinux:     file format elf32-tradbigmips

Disassembly of section .text:

80010000 <_start>:
80010000:	40806000 	mtc0	zero,$12
80010004:	00000000 	nop
80010008:	40809000 	mtc0	zero,$18
8001000c:	00000000 	nop
80010010:	40809800 	mtc0	zero,$19
80010014:	00000000 	nop
80010018:	40088000 	mfc0	t0,$16
8001001c:	2401fff8 	li	at,-8
80010020:	01014024 	and	t0,t0,at
80010024:	35080002 	ori	t0,t0,0x2
80010028:	40888000 	mtc0	t0,$16
8001002c:	0c004010 	jal	80010040 <main>
80010030:	3c1d8040 	lui	sp,0x8040

80010034 <loop>:
80010034:	0800400d 	j	80010034 <loop>
80010038:	00000000 	nop
8001003c:	00000000 	nop

80010040 <main>:
80010040:	27bdffe8 	addiu	sp,sp,-24
80010044:	afbf0010 	sw	ra,16(sp)
80010048:	3c048001 	lui	a0,0x8001
8001004c:	0c0042b2 	jal	80010ac8 <printf>
80010050:	24840b88 	addiu	a0,a0,2952
80010054:	0c004020 	jal	80010080 <mips_init>
80010058:	00000000 	nop
8001005c:	3c048001 	lui	a0,0x8001
80010060:	24840ba4 	addiu	a0,a0,2980
80010064:	24050014 	li	a1,20
80010068:	3c068001 	lui	a2,0x8001
8001006c:	0c0042c2 	jal	80010b08 <_panic>
80010070:	24c60bac 	addiu	a2,a2,2988
	...

80010080 <mips_init>:
80010080:	27bdffe8 	addiu	sp,sp,-24
80010084:	afbf0010 	sw	ra,16(sp)
80010088:	3c048001 	lui	a0,0x8001
8001008c:	0c0042b2 	jal	80010ac8 <printf>
80010090:	24840bc4 	addiu	a0,a0,3012
80010094:	3c048001 	lui	a0,0x8001
80010098:	24840be4 	addiu	a0,a0,3044
8001009c:	24050018 	li	a1,24
800100a0:	3c068001 	lui	a2,0x8001
800100a4:	0c0042c2 	jal	80010b08 <_panic>
800100a8:	24c60bec 	addiu	a2,a2,3052
800100ac:	00000000 	nop

800100b0 <printcharc>:
800100b0:	308400ff 	andi	a0,a0,0xff
800100b4:	3c02b000 	lui	v0,0xb000
800100b8:	a0440000 	sb	a0,0(v0)
800100bc:	03e00008 	jr	ra
800100c0:	00000000 	nop

800100c4 <halt>:
800100c4:	3c02b000 	lui	v0,0xb000
800100c8:	34420010 	ori	v0,v0,0x10
800100cc:	a0400000 	sb	zero,0(v0)
800100d0:	03e00008 	jr	ra
800100d4:	00000000 	nop

800100d8 <printstr>:
800100d8:	27bdffe8 	addiu	sp,sp,-24
800100dc:	afbf0014 	sw	ra,20(sp)
800100e0:	afb00010 	sw	s0,16(sp)
800100e4:	00808021 	move	s0,a0
800100e8:	80840000 	lb	a0,0(a0)
800100ec:	00000000 	nop
800100f0:	10800007 	beqz	a0,80010110 <printstr+0x38>
800100f4:	00000000 	nop
800100f8:	0c00402c 	jal	800100b0 <printcharc>
800100fc:	26100001 	addiu	s0,s0,1
80010100:	82040000 	lb	a0,0(s0)
80010104:	00000000 	nop
80010108:	1480fffb 	bnez	a0,800100f8 <printstr+0x20>
8001010c:	00000000 	nop
80010110:	8fbf0014 	lw	ra,20(sp)
80010114:	8fb00010 	lw	s0,16(sp)
80010118:	03e00008 	jr	ra
8001011c:	27bd0018 	addiu	sp,sp,24

80010120 <lp_Print>:
80010120:	27bdff70 	addiu	sp,sp,-144
80010124:	afbf0088 	sw	ra,136(sp)
80010128:	afb50084 	sw	s5,132(sp)
8001012c:	afb40080 	sw	s4,128(sp)
80010130:	afb3007c 	sw	s3,124(sp)
80010134:	afb20078 	sw	s2,120(sp)
80010138:	afb10074 	sw	s1,116(sp)
8001013c:	afb00070 	sw	s0,112(sp)
80010140:	0080a021 	move	s4,a0
80010144:	00a0a821 	move	s5,a1
80010148:	00c08021 	move	s0,a2
8001014c:	80c20000 	lb	v0,0(a2)
80010150:	00000000 	nop
80010154:	10400155 	beqz	v0,800106ac <lp_Print+0x58c>
80010158:	00e09021 	move	s2,a3
8001015c:	00009821 	move	s3,zero
80010160:	82030000 	lb	v1,0(s0)
80010164:	24020025 	li	v0,37
80010168:	1462015e 	bne	v1,v0,800106e4 <lp_Print+0x5c4>
8001016c:	00003021 	move	a2,zero
80010170:	1000000e 	b	800101ac <lp_Print+0x8c>
80010174:	2cc20051 	sltiu	v0,a2,81
80010178:	1060000c 	beqz	v1,800101ac <lp_Print+0x8c>
8001017c:	2cc20051 	sltiu	v0,a2,81
80010180:	03a61021 	addu	v0,sp,a2
80010184:	a0430020 	sb	v1,32(v0)
80010188:	26100001 	addiu	s0,s0,1
8001018c:	82030000 	lb	v1,0(s0)
80010190:	24020025 	li	v0,37
80010194:	1462fff8 	bne	v1,v0,80010178 <lp_Print+0x58>
80010198:	24c60001 	addiu	a2,a2,1
8001019c:	10000003 	b	800101ac <lp_Print+0x8c>
800101a0:	2cc20051 	sltiu	v0,a2,81
800101a4:	00003021 	move	a2,zero
800101a8:	2cc20051 	sltiu	v0,a2,81
800101ac:	14400007 	bnez	v0,800101cc <lp_Print+0xac>
800101b0:	02a02021 	move	a0,s5
800101b4:	3c058001 	lui	a1,0x8001
800101b8:	24a50c30 	addiu	a1,a1,3120
800101bc:	0280f809 	jalr	s4
800101c0:	24060018 	li	a2,24
800101c4:	1000ffff 	b	800101c4 <lp_Print+0xa4>
800101c8:	00000000 	nop
800101cc:	0280f809 	jalr	s4
800101d0:	27a50020 	addiu	a1,sp,32
800101d4:	82020000 	lb	v0,0(s0)
800101d8:	00000000 	nop
800101dc:	10400133 	beqz	v0,800106ac <lp_Print+0x58c>
800101e0:	2402002d 	li	v0,45
800101e4:	82030001 	lb	v1,1(s0)
800101e8:	00000000 	nop
800101ec:	14620004 	bne	v1,v0,80010200 <lp_Print+0xe0>
800101f0:	26110001 	addiu	s1,s0,1
800101f4:	26110002 	addiu	s1,s0,2
800101f8:	10000005 	b	80010210 <lp_Print+0xf0>
800101fc:	24070001 	li	a3,1
80010200:	2402002b 	li	v0,43
80010204:	14620002 	bne	v1,v0,80010210 <lp_Print+0xf0>
80010208:	00003821 	move	a3,zero
8001020c:	26110002 	addiu	s1,s0,2
80010210:	82230000 	lb	v1,0(s1)
80010214:	24020030 	li	v0,48
80010218:	14620003 	bne	v1,v0,80010228 <lp_Print+0x108>
8001021c:	24080020 	li	t0,32
80010220:	26310001 	addiu	s1,s1,1
80010224:	24080030 	li	t0,48
80010228:	82260000 	lb	a2,0(s1)
8001022c:	2402002e 	li	v0,46
80010230:	14c20013 	bne	a2,v0,80010280 <lp_Print+0x160>
80010234:	24c2ffd0 	addiu	v0,a2,-48
80010238:	26310001 	addiu	s1,s1,1
8001023c:	92220000 	lbu	v0,0(s1)
80010240:	00000000 	nop
80010244:	2442ffd0 	addiu	v0,v0,-48
80010248:	304200ff 	andi	v0,v0,0xff
8001024c:	2c42000a 	sltiu	v0,v0,10
80010250:	1040001f 	beqz	v0,800102d0 <lp_Print+0x1b0>
80010254:	00000000 	nop
80010258:	26310001 	addiu	s1,s1,1
8001025c:	92220000 	lbu	v0,0(s1)
80010260:	00000000 	nop
80010264:	2442ffd0 	addiu	v0,v0,-48
80010268:	304200ff 	andi	v0,v0,0xff
8001026c:	2c42000a 	sltiu	v0,v0,10
80010270:	10400017 	beqz	v0,800102d0 <lp_Print+0x1b0>
80010274:	00000000 	nop
80010278:	1000fff8 	b	8001025c <lp_Print+0x13c>
8001027c:	26310001 	addiu	s1,s1,1
80010280:	304200ff 	andi	v0,v0,0xff
80010284:	2c42000a 	sltiu	v0,v0,10
80010288:	10400012 	beqz	v0,800102d4 <lp_Print+0x1b4>
8001028c:	00000000 	nop
80010290:	00009821 	move	s3,zero
80010294:	00131040 	sll	v0,s3,0x1
80010298:	001318c0 	sll	v1,s3,0x3
8001029c:	00431021 	addu	v0,v0,v1
800102a0:	00461021 	addu	v0,v0,a2
800102a4:	2453ffd0 	addiu	s3,v0,-48
800102a8:	26310001 	addiu	s1,s1,1
800102ac:	82260000 	lb	a2,0(s1)
800102b0:	00000000 	nop
800102b4:	24c2ffd0 	addiu	v0,a2,-48
800102b8:	304200ff 	andi	v0,v0,0xff
800102bc:	2c42000a 	sltiu	v0,v0,10
800102c0:	10400004 	beqz	v0,800102d4 <lp_Print+0x1b4>
800102c4:	00131040 	sll	v0,s3,0x1
800102c8:	1000fff4 	b	8001029c <lp_Print+0x17c>
800102cc:	001318c0 	sll	v1,s3,0x3
800102d0:	00009821 	move	s3,zero
800102d4:	82230000 	lb	v1,0(s1)
800102d8:	2402006c 	li	v0,108
800102dc:	14620005 	bne	v1,v0,800102f4 <lp_Print+0x1d4>
800102e0:	00002021 	move	a0,zero
800102e4:	26310001 	addiu	s1,s1,1
800102e8:	24040001 	li	a0,1
800102ec:	82230000 	lb	v1,0(s1)
800102f0:	00000000 	nop
800102f4:	2c620079 	sltiu	v0,v1,121
800102f8:	104000e3 	beqz	v0,80010688 <lp_Print+0x568>
800102fc:	00031080 	sll	v0,v1,0x2
80010300:	3c038001 	lui	v1,0x8001
80010304:	24630c50 	addiu	v1,v1,3152
80010308:	00431021 	addu	v0,v0,v1
8001030c:	8c420000 	lw	v0,0(v0)
80010310:	00000000 	nop
80010314:	00400008 	jr	v0
80010318:	00000000 	nop
8001031c:	10800004 	beqz	a0,80010330 <lp_Print+0x210>
80010320:	00000000 	nop
80010324:	8e450000 	lw	a1,0(s2)
80010328:	10000003 	b	80010338 <lp_Print+0x218>
8001032c:	26520004 	addiu	s2,s2,4
80010330:	8e450000 	lw	a1,0(s2)
80010334:	26520004 	addiu	s2,s2,4
80010338:	afb30010 	sw	s3,16(sp)
8001033c:	afa70014 	sw	a3,20(sp)
80010340:	afa80018 	sw	t0,24(sp)
80010344:	afa0001c 	sw	zero,28(sp)
80010348:	27a40020 	addiu	a0,sp,32
8001034c:	24060002 	li	a2,2
80010350:	0c004224 	jal	80010890 <PrintNum>
80010354:	00003821 	move	a3,zero
80010358:	00403021 	move	a2,v0
8001035c:	2c420051 	sltiu	v0,v0,81
80010360:	14400007 	bnez	v0,80010380 <lp_Print+0x260>
80010364:	02a02021 	move	a0,s5
80010368:	3c058001 	lui	a1,0x8001
8001036c:	24a50c30 	addiu	a1,a1,3120
80010370:	0280f809 	jalr	s4
80010374:	24060018 	li	a2,24
80010378:	1000ffff 	b	80010378 <lp_Print+0x258>
8001037c:	00000000 	nop
80010380:	0280f809 	jalr	s4
80010384:	27a50020 	addiu	a1,sp,32
80010388:	100000c4 	b	8001069c <lp_Print+0x57c>
8001038c:	26300001 	addiu	s0,s1,1
80010390:	10800004 	beqz	a0,800103a4 <lp_Print+0x284>
80010394:	00000000 	nop
80010398:	8e450000 	lw	a1,0(s2)
8001039c:	10000003 	b	800103ac <lp_Print+0x28c>
800103a0:	26520004 	addiu	s2,s2,4
800103a4:	8e450000 	lw	a1,0(s2)
800103a8:	26520004 	addiu	s2,s2,4
800103ac:	04a10003 	bgez	a1,800103bc <lp_Print+0x29c>
800103b0:	00001021 	move	v0,zero
800103b4:	00052823 	negu	a1,a1
800103b8:	24020001 	li	v0,1
800103bc:	afb30010 	sw	s3,16(sp)
800103c0:	afa70014 	sw	a3,20(sp)
800103c4:	afa80018 	sw	t0,24(sp)
800103c8:	afa0001c 	sw	zero,28(sp)
800103cc:	27a40020 	addiu	a0,sp,32
800103d0:	2406000a 	li	a2,10
800103d4:	0c004224 	jal	80010890 <PrintNum>
800103d8:	00403821 	move	a3,v0
800103dc:	00403021 	move	a2,v0
800103e0:	2c420051 	sltiu	v0,v0,81
800103e4:	14400007 	bnez	v0,80010404 <lp_Print+0x2e4>
800103e8:	02a02021 	move	a0,s5
800103ec:	3c058001 	lui	a1,0x8001
800103f0:	24a50c30 	addiu	a1,a1,3120
800103f4:	0280f809 	jalr	s4
800103f8:	24060018 	li	a2,24
800103fc:	1000ffff 	b	800103fc <lp_Print+0x2dc>
80010400:	00000000 	nop
80010404:	0280f809 	jalr	s4
80010408:	27a50020 	addiu	a1,sp,32
8001040c:	100000a3 	b	8001069c <lp_Print+0x57c>
80010410:	26300001 	addiu	s0,s1,1
80010414:	10800004 	beqz	a0,80010428 <lp_Print+0x308>
80010418:	00000000 	nop
8001041c:	8e450000 	lw	a1,0(s2)
80010420:	10000003 	b	80010430 <lp_Print+0x310>
80010424:	26520004 	addiu	s2,s2,4
80010428:	8e450000 	lw	a1,0(s2)
8001042c:	26520004 	addiu	s2,s2,4
80010430:	afb30010 	sw	s3,16(sp)
80010434:	afa70014 	sw	a3,20(sp)
80010438:	afa80018 	sw	t0,24(sp)
8001043c:	afa0001c 	sw	zero,28(sp)
80010440:	27a40020 	addiu	a0,sp,32
80010444:	24060008 	li	a2,8
80010448:	0c004224 	jal	80010890 <PrintNum>
8001044c:	00003821 	move	a3,zero
80010450:	00403021 	move	a2,v0
80010454:	2c420051 	sltiu	v0,v0,81
80010458:	14400007 	bnez	v0,80010478 <lp_Print+0x358>
8001045c:	02a02021 	move	a0,s5
80010460:	3c058001 	lui	a1,0x8001
80010464:	24a50c30 	addiu	a1,a1,3120
80010468:	0280f809 	jalr	s4
8001046c:	24060018 	li	a2,24
80010470:	1000ffff 	b	80010470 <lp_Print+0x350>
80010474:	00000000 	nop
80010478:	0280f809 	jalr	s4
8001047c:	27a50020 	addiu	a1,sp,32
80010480:	10000086 	b	8001069c <lp_Print+0x57c>
80010484:	26300001 	addiu	s0,s1,1
80010488:	10800004 	beqz	a0,8001049c <lp_Print+0x37c>
8001048c:	00000000 	nop
80010490:	8e450000 	lw	a1,0(s2)
80010494:	10000003 	b	800104a4 <lp_Print+0x384>
80010498:	26520004 	addiu	s2,s2,4
8001049c:	8e450000 	lw	a1,0(s2)
800104a0:	26520004 	addiu	s2,s2,4
800104a4:	afb30010 	sw	s3,16(sp)
800104a8:	afa70014 	sw	a3,20(sp)
800104ac:	afa80018 	sw	t0,24(sp)
800104b0:	afa0001c 	sw	zero,28(sp)
800104b4:	27a40020 	addiu	a0,sp,32
800104b8:	2406000a 	li	a2,10
800104bc:	0c004224 	jal	80010890 <PrintNum>
800104c0:	00003821 	move	a3,zero
800104c4:	00403021 	move	a2,v0
800104c8:	2c420051 	sltiu	v0,v0,81
800104cc:	14400007 	bnez	v0,800104ec <lp_Print+0x3cc>
800104d0:	02a02021 	move	a0,s5
800104d4:	3c058001 	lui	a1,0x8001
800104d8:	24a50c30 	addiu	a1,a1,3120
800104dc:	0280f809 	jalr	s4
800104e0:	24060018 	li	a2,24
800104e4:	1000ffff 	b	800104e4 <lp_Print+0x3c4>
800104e8:	00000000 	nop
800104ec:	0280f809 	jalr	s4
800104f0:	27a50020 	addiu	a1,sp,32
800104f4:	10000069 	b	8001069c <lp_Print+0x57c>
800104f8:	26300001 	addiu	s0,s1,1
800104fc:	10800004 	beqz	a0,80010510 <lp_Print+0x3f0>
80010500:	00000000 	nop
80010504:	8e450000 	lw	a1,0(s2)
80010508:	10000003 	b	80010518 <lp_Print+0x3f8>
8001050c:	26520004 	addiu	s2,s2,4
80010510:	8e450000 	lw	a1,0(s2)
80010514:	26520004 	addiu	s2,s2,4
80010518:	afb30010 	sw	s3,16(sp)
8001051c:	afa70014 	sw	a3,20(sp)
80010520:	afa80018 	sw	t0,24(sp)
80010524:	afa0001c 	sw	zero,28(sp)
80010528:	27a40020 	addiu	a0,sp,32
8001052c:	24060010 	li	a2,16
80010530:	0c004224 	jal	80010890 <PrintNum>
80010534:	00003821 	move	a3,zero
80010538:	00403021 	move	a2,v0
8001053c:	2c420051 	sltiu	v0,v0,81
80010540:	14400007 	bnez	v0,80010560 <lp_Print+0x440>
80010544:	02a02021 	move	a0,s5
80010548:	3c058001 	lui	a1,0x8001
8001054c:	24a50c30 	addiu	a1,a1,3120
80010550:	0280f809 	jalr	s4
80010554:	24060018 	li	a2,24
80010558:	1000ffff 	b	80010558 <lp_Print+0x438>
8001055c:	00000000 	nop
80010560:	0280f809 	jalr	s4
80010564:	27a50020 	addiu	a1,sp,32
80010568:	1000004c 	b	8001069c <lp_Print+0x57c>
8001056c:	26300001 	addiu	s0,s1,1
80010570:	10800004 	beqz	a0,80010584 <lp_Print+0x464>
80010574:	00000000 	nop
80010578:	8e450000 	lw	a1,0(s2)
8001057c:	10000003 	b	8001058c <lp_Print+0x46c>
80010580:	26520004 	addiu	s2,s2,4
80010584:	8e450000 	lw	a1,0(s2)
80010588:	26520004 	addiu	s2,s2,4
8001058c:	afb30010 	sw	s3,16(sp)
80010590:	afa70014 	sw	a3,20(sp)
80010594:	afa80018 	sw	t0,24(sp)
80010598:	24020001 	li	v0,1
8001059c:	afa2001c 	sw	v0,28(sp)
800105a0:	27a40020 	addiu	a0,sp,32
800105a4:	24060010 	li	a2,16
800105a8:	0c004224 	jal	80010890 <PrintNum>
800105ac:	00003821 	move	a3,zero
800105b0:	00403021 	move	a2,v0
800105b4:	2c420051 	sltiu	v0,v0,81
800105b8:	14400007 	bnez	v0,800105d8 <lp_Print+0x4b8>
800105bc:	02a02021 	move	a0,s5
800105c0:	3c058001 	lui	a1,0x8001
800105c4:	24a50c30 	addiu	a1,a1,3120
800105c8:	0280f809 	jalr	s4
800105cc:	24060018 	li	a2,24
800105d0:	1000ffff 	b	800105d0 <lp_Print+0x4b0>
800105d4:	00000000 	nop
800105d8:	0280f809 	jalr	s4
800105dc:	27a50020 	addiu	a1,sp,32
800105e0:	1000002e 	b	8001069c <lp_Print+0x57c>
800105e4:	26300001 	addiu	s0,s1,1
800105e8:	26500004 	addiu	s0,s2,4
800105ec:	27a40020 	addiu	a0,sp,32
800105f0:	82450003 	lb	a1,3(s2)
800105f4:	0c0041bd 	jal	800106f4 <PrintChar>
800105f8:	02603021 	move	a2,s3
800105fc:	00403021 	move	a2,v0
80010600:	2c420051 	sltiu	v0,v0,81
80010604:	14400007 	bnez	v0,80010624 <lp_Print+0x504>
80010608:	02a02021 	move	a0,s5
8001060c:	3c058001 	lui	a1,0x8001
80010610:	24a50c30 	addiu	a1,a1,3120
80010614:	0280f809 	jalr	s4
80010618:	24060018 	li	a2,24
8001061c:	1000ffff 	b	8001061c <lp_Print+0x4fc>
80010620:	00000000 	nop
80010624:	0280f809 	jalr	s4
80010628:	27a50020 	addiu	a1,sp,32
8001062c:	1000001a 	b	80010698 <lp_Print+0x578>
80010630:	02009021 	move	s2,s0
80010634:	26500004 	addiu	s0,s2,4
80010638:	27a40020 	addiu	a0,sp,32
8001063c:	8e450000 	lw	a1,0(s2)
80010640:	0c0041dc 	jal	80010770 <PrintString>
80010644:	02603021 	move	a2,s3
80010648:	00403021 	move	a2,v0
8001064c:	2c420051 	sltiu	v0,v0,81
80010650:	14400007 	bnez	v0,80010670 <lp_Print+0x550>
80010654:	02a02021 	move	a0,s5
80010658:	3c058001 	lui	a1,0x8001
8001065c:	24a50c30 	addiu	a1,a1,3120
80010660:	0280f809 	jalr	s4
80010664:	24060018 	li	a2,24
80010668:	1000ffff 	b	80010668 <lp_Print+0x548>
8001066c:	00000000 	nop
80010670:	0280f809 	jalr	s4
80010674:	27a50020 	addiu	a1,sp,32
80010678:	10000007 	b	80010698 <lp_Print+0x578>
8001067c:	02009021 	move	s2,s0
80010680:	10000005 	b	80010698 <lp_Print+0x578>
80010684:	2631ffff 	addiu	s1,s1,-1
80010688:	02a02021 	move	a0,s5
8001068c:	02202821 	move	a1,s1
80010690:	0280f809 	jalr	s4
80010694:	24060001 	li	a2,1
80010698:	26300001 	addiu	s0,s1,1
8001069c:	82220001 	lb	v0,1(s1)
800106a0:	00000000 	nop
800106a4:	1440feae 	bnez	v0,80010160 <lp_Print+0x40>
800106a8:	00000000 	nop
800106ac:	02a02021 	move	a0,s5
800106b0:	3c058001 	lui	a1,0x8001
800106b4:	24a50c4c 	addiu	a1,a1,3148
800106b8:	0280f809 	jalr	s4
800106bc:	24060001 	li	a2,1
800106c0:	8fbf0088 	lw	ra,136(sp)
800106c4:	8fb50084 	lw	s5,132(sp)
800106c8:	8fb40080 	lw	s4,128(sp)
800106cc:	8fb3007c 	lw	s3,124(sp)
800106d0:	8fb20078 	lw	s2,120(sp)
800106d4:	8fb10074 	lw	s1,116(sp)
800106d8:	8fb00070 	lw	s0,112(sp)
800106dc:	03e00008 	jr	ra
800106e0:	27bd0090 	addiu	sp,sp,144
800106e4:	1060feaf 	beqz	v1,800101a4 <lp_Print+0x84>
800106e8:	03a61021 	addu	v0,sp,a2
800106ec:	1000fea5 	b	80010184 <lp_Print+0x64>
800106f0:	00000000 	nop

800106f4 <PrintChar>:
800106f4:	00052e00 	sll	a1,a1,0x18
800106f8:	1cc00002 	bgtz	a2,80010704 <PrintChar+0x10>
800106fc:	00052e03 	sra	a1,a1,0x18
80010700:	24060001 	li	a2,1
80010704:	10e00014 	beqz	a3,80010758 <PrintChar+0x64>
80010708:	28c20002 	slti	v0,a2,2
8001070c:	14400016 	bnez	v0,80010768 <PrintChar+0x74>
80010710:	a0850000 	sb	a1,0(a0)
80010714:	24030001 	li	v1,1
80010718:	24050020 	li	a1,32
8001071c:	00831021 	addu	v0,a0,v1
80010720:	24630001 	addiu	v1,v1,1
80010724:	10c30010 	beq	a2,v1,80010768 <PrintChar+0x74>
80010728:	a0450000 	sb	a1,0(v0)
8001072c:	1000fffc 	b	80010720 <PrintChar+0x2c>
80010730:	00831021 	addu	v0,a0,v1
80010734:	00001821 	move	v1,zero
80010738:	24080020 	li	t0,32
8001073c:	00641021 	addu	v0,v1,a0
80010740:	24630001 	addiu	v1,v1,1
80010744:	1467fffd 	bne	v1,a3,8001073c <PrintChar+0x48>
80010748:	a0480000 	sb	t0,0(v0)
8001074c:	00c41021 	addu	v0,a2,a0
80010750:	10000005 	b	80010768 <PrintChar+0x74>
80010754:	a045ffff 	sb	a1,-1(v0)
80010758:	24c7ffff 	addiu	a3,a2,-1
8001075c:	1ce0fff5 	bgtz	a3,80010734 <PrintChar+0x40>
80010760:	00c41021 	addu	v0,a2,a0
80010764:	a045ffff 	sb	a1,-1(v0)
80010768:	03e00008 	jr	ra
8001076c:	00c01021 	move	v0,a2

80010770 <PrintString>:
80010770:	80a20000 	lb	v0,0(a1)
80010774:	00000000 	nop
80010778:	14400003 	bnez	v0,80010788 <PrintString+0x18>
8001077c:	24a30001 	addiu	v1,a1,1
80010780:	10000007 	b	800107a0 <PrintString+0x30>
80010784:	00004021 	move	t0,zero
80010788:	00004021 	move	t0,zero
8001078c:	25080001 	addiu	t0,t0,1
80010790:	80620000 	lb	v0,0(v1)
80010794:	00000000 	nop
80010798:	1440fffc 	bnez	v0,8001078c <PrintString+0x1c>
8001079c:	24630001 	addiu	v1,v1,1
800107a0:	00c8102a 	slt	v0,a2,t0
800107a4:	10400002 	beqz	v0,800107b0 <PrintString+0x40>
800107a8:	00000000 	nop
800107ac:	01003021 	move	a2,t0
800107b0:	14e00031 	bnez	a3,80010878 <PrintString+0x108>
800107b4:	00c83823 	subu	a3,a2,t0
800107b8:	1000002b 	b	80010868 <PrintString+0xf8>
800107bc:	00000000 	nop
800107c0:	00003821 	move	a3,zero
800107c4:	00871021 	addu	v0,a0,a3
800107c8:	00a71821 	addu	v1,a1,a3
800107cc:	90630000 	lbu	v1,0(v1)
800107d0:	24e70001 	addiu	a3,a3,1
800107d4:	1507fffb 	bne	t0,a3,800107c4 <PrintString+0x54>
800107d8:	a0430000 	sb	v1,0(v0)
800107dc:	0106102a 	slt	v0,t0,a2
800107e0:	10400029 	beqz	v0,80010888 <PrintString+0x118>
800107e4:	00001821 	move	v1,zero
800107e8:	00881021 	addu	v0,a0,t0
800107ec:	24050020 	li	a1,32
800107f0:	00c82023 	subu	a0,a2,t0
800107f4:	a0450000 	sb	a1,0(v0)
800107f8:	24630001 	addiu	v1,v1,1
800107fc:	10640022 	beq	v1,a0,80010888 <PrintString+0x118>
80010800:	24420001 	addiu	v0,v0,1
80010804:	1000fffc 	b	800107f8 <PrintString+0x88>
80010808:	a0450000 	sb	a1,0(v0)
8001080c:	00001821 	move	v1,zero
80010810:	24090020 	li	t1,32
80010814:	00831021 	addu	v0,a0,v1
80010818:	24630001 	addiu	v1,v1,1
8001081c:	1467fffd 	bne	v1,a3,80010814 <PrintString+0xa4>
80010820:	a0490000 	sb	t1,0(v0)
80010824:	00e6102a 	slt	v0,a3,a2
80010828:	10400017 	beqz	v0,80010888 <PrintString+0x118>
8001082c:	00872021 	addu	a0,a0,a3
80010830:	00e61023 	subu	v0,a3,a2
80010834:	01021021 	addu	v0,t0,v0
80010838:	00a21821 	addu	v1,a1,v0
8001083c:	00002821 	move	a1,zero
80010840:	00c73823 	subu	a3,a2,a3
80010844:	90620000 	lbu	v0,0(v1)
80010848:	00000000 	nop
8001084c:	a0820000 	sb	v0,0(a0)
80010850:	24a50001 	addiu	a1,a1,1
80010854:	24630001 	addiu	v1,v1,1
80010858:	10a7000b 	beq	a1,a3,80010888 <PrintString+0x118>
8001085c:	24840001 	addiu	a0,a0,1
80010860:	1000fff8 	b	80010844 <PrintString+0xd4>
80010864:	00000000 	nop
80010868:	1ce0ffe8 	bgtz	a3,8001080c <PrintString+0x9c>
8001086c:	00e6102a 	slt	v0,a3,a2
80010870:	1000ffed 	b	80010828 <PrintString+0xb8>
80010874:	00000000 	nop
80010878:	1d00ffd1 	bgtz	t0,800107c0 <PrintString+0x50>
8001087c:	0106102a 	slt	v0,t0,a2
80010880:	1000ffd7 	b	800107e0 <PrintString+0x70>
80010884:	00000000 	nop
80010888:	03e00008 	jr	ra
8001088c:	00c01021 	move	v0,a2

80010890 <PrintNum>:
80010890:	8fa90010 	lw	t1,16(sp)
80010894:	8fac0014 	lw	t4,20(sp)
80010898:	8fab001c 	lw	t3,28(sp)
8001089c:	83aa001b 	lb	t2,27(sp)
800108a0:	00804021 	move	t0,a0
800108a4:	14c00002 	bnez	a2,800108b0 <PrintNum+0x20>
800108a8:	00a6001b 	divu	zero,a1,a2
800108ac:	0007000d 	break	0x7
800108b0:	00001810 	mfhi	v1
800108b4:	2862000a 	slti	v0,v1,10
800108b8:	10400004 	beqz	v0,800108cc <PrintNum+0x3c>
800108bc:	24620030 	addiu	v0,v1,48
800108c0:	a1020000 	sb	v0,0(t0)
800108c4:	1000000c 	b	800108f8 <PrintNum+0x68>
800108c8:	25080001 	addiu	t0,t0,1
800108cc:	11600005 	beqz	t3,800108e4 <PrintNum+0x54>
800108d0:	24620057 	addiu	v0,v1,87
800108d4:	24620037 	addiu	v0,v1,55
800108d8:	a1020000 	sb	v0,0(t0)
800108dc:	10000003 	b	800108ec <PrintNum+0x5c>
800108e0:	25080001 	addiu	t0,t0,1
800108e4:	a1020000 	sb	v0,0(t0)
800108e8:	25080001 	addiu	t0,t0,1
800108ec:	14c00002 	bnez	a2,800108f8 <PrintNum+0x68>
800108f0:	00a6001b 	divu	zero,a1,a2
800108f4:	0007000d 	break	0x7
800108f8:	00002812 	mflo	a1
800108fc:	14a0ffe9 	bnez	a1,800108a4 <PrintNum+0x14>
80010900:	00000000 	nop
80010904:	10e00005 	beqz	a3,8001091c <PrintNum+0x8c>
80010908:	01043023 	subu	a2,t0,a0
8001090c:	2402002d 	li	v0,45
80010910:	a1020000 	sb	v0,0(t0)
80010914:	25080001 	addiu	t0,t0,1
80010918:	01043023 	subu	a2,t0,a0
8001091c:	0126102a 	slt	v0,t1,a2
80010920:	10400002 	beqz	v0,8001092c <PrintNum+0x9c>
80010924:	00000000 	nop
80010928:	00c04821 	move	t1,a2
8001092c:	11800002 	beqz	t4,80010938 <PrintNum+0xa8>
80010930:	00000000 	nop
80010934:	240a0020 	li	t2,32
80010938:	10e00033 	beqz	a3,80010a08 <PrintNum+0x178>
8001093c:	00c9102a 	slt	v0,a2,t1
80010940:	15800031 	bnez	t4,80010a08 <PrintNum+0x178>
80010944:	00000000 	nop
80010948:	24020030 	li	v0,48
8001094c:	1542002e 	bne	t2,v0,80010a08 <PrintNum+0x178>
80010950:	00c9102a 	slt	v0,a2,t1
80010954:	24c6ffff 	addiu	a2,a2,-1
80010958:	2528ffff 	addiu	t0,t1,-1
8001095c:	00c8102a 	slt	v0,a2,t0
80010960:	10400008 	beqz	v0,80010984 <PrintNum+0xf4>
80010964:	01061023 	subu	v0,t0,a2
80010968:	00861821 	addu	v1,a0,a2
8001096c:	00002821 	move	a1,zero
80010970:	24070030 	li	a3,48
80010974:	a0670000 	sb	a3,0(v1)
80010978:	24a50001 	addiu	a1,a1,1
8001097c:	14a2fffd 	bne	a1,v0,80010974 <PrintNum+0xe4>
80010980:	24630001 	addiu	v1,v1,1
80010984:	00891821 	addu	v1,a0,t1
80010988:	2402002d 	li	v0,45
8001098c:	1000000d 	b	800109c4 <PrintNum+0x134>
80010990:	a062ffff 	sb	v0,-1(v1)
80010994:	a0aa0000 	sb	t2,0(a1)
80010998:	24630001 	addiu	v1,v1,1
8001099c:	01261023 	subu	v0,t1,a2
800109a0:	1462fffc 	bne	v1,v0,80010994 <PrintNum+0x104>
800109a4:	24a50001 	addiu	a1,a1,1
800109a8:	11800006 	beqz	t4,800109c4 <PrintNum+0x134>
800109ac:	00000000 	nop
800109b0:	24c6ffff 	addiu	a2,a2,-1
800109b4:	1cc00005 	bgtz	a2,800109cc <PrintNum+0x13c>
800109b8:	00003821 	move	a3,zero
800109bc:	03e00008 	jr	ra
800109c0:	01201021 	move	v0,t1
800109c4:	1000fffb 	b	800109b4 <PrintNum+0x124>
800109c8:	2526ffff 	addiu	a2,t1,-1
800109cc:	00802821 	move	a1,a0
800109d0:	00862021 	addu	a0,a0,a2
800109d4:	80a20000 	lb	v0,0(a1)
800109d8:	90830000 	lbu	v1,0(a0)
800109dc:	00000000 	nop
800109e0:	a0a30000 	sb	v1,0(a1)
800109e4:	a0820000 	sb	v0,0(a0)
800109e8:	24e70001 	addiu	a3,a3,1
800109ec:	24c6ffff 	addiu	a2,a2,-1
800109f0:	24a50001 	addiu	a1,a1,1
800109f4:	00e6102a 	slt	v0,a3,a2
800109f8:	10400008 	beqz	v0,80010a1c <PrintNum+0x18c>
800109fc:	2484ffff 	addiu	a0,a0,-1
80010a00:	1000fff4 	b	800109d4 <PrintNum+0x144>
80010a04:	00000000 	nop
80010a08:	1040ffe7 	beqz	v0,800109a8 <PrintNum+0x118>
80010a0c:	00000000 	nop
80010a10:	00862821 	addu	a1,a0,a2
80010a14:	1000ffdf 	b	80010994 <PrintNum+0x104>
80010a18:	00001821 	move	v1,zero
80010a1c:	01201021 	move	v0,t1
80010a20:	03e00008 	jr	ra
80010a24:	00000000 	nop
	...

80010a30 <myoutput>:
80010a30:	27bdffe0 	addiu	sp,sp,-32
80010a34:	afbf001c 	sw	ra,28(sp)
80010a38:	afb20018 	sw	s2,24(sp)
80010a3c:	afb10014 	sw	s1,20(sp)
80010a40:	afb00010 	sw	s0,16(sp)
80010a44:	24020001 	li	v0,1
80010a48:	14c20015 	bne	a2,v0,80010aa0 <myoutput+0x70>
80010a4c:	00c09021 	move	s2,a2
80010a50:	80a20000 	lb	v0,0(a1)
80010a54:	00000000 	nop
80010a58:	14400013 	bnez	v0,80010aa8 <myoutput+0x78>
80010a5c:	00a08021 	move	s0,a1
80010a60:	10000013 	b	80010ab0 <myoutput+0x80>
80010a64:	00000000 	nop
80010a68:	82040000 	lb	a0,0(s0)
80010a6c:	0c00402c 	jal	800100b0 <printcharc>
80010a70:	00000000 	nop
80010a74:	82030000 	lb	v1,0(s0)
80010a78:	2402000a 	li	v0,10
80010a7c:	14620003 	bne	v1,v0,80010a8c <myoutput+0x5c>
80010a80:	00000000 	nop
80010a84:	0c00402c 	jal	800100b0 <printcharc>
80010a88:	2404000a 	li	a0,10
80010a8c:	26310001 	addiu	s1,s1,1
80010a90:	12510007 	beq	s2,s1,80010ab0 <myoutput+0x80>
80010a94:	26100001 	addiu	s0,s0,1
80010a98:	1000fff3 	b	80010a68 <myoutput+0x38>
80010a9c:	00000000 	nop
80010aa0:	18c00003 	blez	a2,80010ab0 <myoutput+0x80>
80010aa4:	00a08021 	move	s0,a1
80010aa8:	1000ffef 	b	80010a68 <myoutput+0x38>
80010aac:	00008821 	move	s1,zero
80010ab0:	8fbf001c 	lw	ra,28(sp)
80010ab4:	8fb20018 	lw	s2,24(sp)
80010ab8:	8fb10014 	lw	s1,20(sp)
80010abc:	8fb00010 	lw	s0,16(sp)
80010ac0:	03e00008 	jr	ra
80010ac4:	27bd0020 	addiu	sp,sp,32

80010ac8 <printf>:
80010ac8:	27bdffe0 	addiu	sp,sp,-32
80010acc:	afbf0018 	sw	ra,24(sp)
80010ad0:	afa50024 	sw	a1,36(sp)
80010ad4:	afa60028 	sw	a2,40(sp)
80010ad8:	afa7002c 	sw	a3,44(sp)
80010adc:	00803021 	move	a2,a0
80010ae0:	27a70024 	addiu	a3,sp,36
80010ae4:	afa70010 	sw	a3,16(sp)
80010ae8:	3c048001 	lui	a0,0x8001
80010aec:	24840a30 	addiu	a0,a0,2608
80010af0:	0c004048 	jal	80010120 <lp_Print>
80010af4:	00002821 	move	a1,zero
80010af8:	8fbf0018 	lw	ra,24(sp)
80010afc:	00000000 	nop
80010b00:	03e00008 	jr	ra
80010b04:	27bd0020 	addiu	sp,sp,32

80010b08 <_panic>:
80010b08:	27bdffe0 	addiu	sp,sp,-32
80010b0c:	afbf001c 	sw	ra,28(sp)
80010b10:	afb00018 	sw	s0,24(sp)
80010b14:	00801821 	move	v1,a0
80010b18:	00a04021 	move	t0,a1
80010b1c:	afa7002c 	sw	a3,44(sp)
80010b20:	00c08021 	move	s0,a2
80010b24:	27a2002c 	addiu	v0,sp,44
80010b28:	afa20010 	sw	v0,16(sp)
80010b2c:	3c048001 	lui	a0,0x8001
80010b30:	24840c14 	addiu	a0,a0,3092
80010b34:	00602821 	move	a1,v1
80010b38:	0c0042b2 	jal	80010ac8 <printf>
80010b3c:	01003021 	move	a2,t0
80010b40:	3c048001 	lui	a0,0x8001
80010b44:	24840a30 	addiu	a0,a0,2608
80010b48:	00002821 	move	a1,zero
80010b4c:	8fa70010 	lw	a3,16(sp)
80010b50:	0c004048 	jal	80010120 <lp_Print>
80010b54:	02003021 	move	a2,s0
80010b58:	3c048001 	lui	a0,0x8001
80010b5c:	0c0042b2 	jal	80010ac8 <printf>
80010b60:	24840c28 	addiu	a0,a0,3112
80010b64:	1000ffff 	b	80010b64 <_panic+0x5c>
80010b68:	00000000 	nop
80010b6c:	00000000 	nop
Disassembly of section .reginfo:

80010b70 <.reginfo>:
80010b70:	a0000102 	sb	zero,258(zero)
	...
Disassembly of section .rodata.str1.4:

80010b88 <.rodata.str1.4>:
80010b88:	6d61696e 	0x6d61696e
80010b8c:	2e633a09 	sltiu	v1,s3,14857
80010b90:	6d61696e 	0x6d61696e
80010b94:	20697320 	addi	t1,v1,29472
80010b98:	73746172 	0x73746172
80010b9c:	74202e2e 	jalx	8080b8b8 <end+0x7f2a78>
80010ba0:	2e0a0000 	sltiu	t2,s0,0
80010ba4:	6d61696e 	0x6d61696e
80010ba8:	2e630000 	sltiu	v1,s3,0
80010bac:	6d61696e 	0x6d61696e
80010bb0:	20697320 	addi	t1,v1,29472
80010bb4:	6f766572 	0x6f766572
80010bb8:	20697320 	addi	t1,v1,29472
80010bbc:	6572726f 	0x6572726f
80010bc0:	72210000 	0x72210000
80010bc4:	696e6974 	0x696e6974
80010bc8:	2e633a09 	sltiu	v1,s3,14857
80010bcc:	6d697073 	0x6d697073
80010bd0:	5f696e69 	0x5f696e69
80010bd4:	74282920 	jalx	80a0a480 <end+0x9f1640>
80010bd8:	69732063 	0x69732063
80010bdc:	616c6c65 	0x616c6c65
80010be0:	640a0000 	0x640a0000
80010be4:	696e6974 	0x696e6974
80010be8:	2e630000 	sltiu	v1,s3,0
80010bec:	5e5e5e5e 	0x5e5e5e5e
80010bf0:	5e5e5e5e 	0x5e5e5e5e
80010bf4:	5e5e5e5e 	0x5e5e5e5e
80010bf8:	5e5e5e5e 	0x5e5e5e5e
80010bfc:	5e5e5e5e 	0x5e5e5e5e
80010c00:	5e5e5e5e 	0x5e5e5e5e
80010c04:	5e5e5e5e 	0x5e5e5e5e
80010c08:	5e5e5e5e 	0x5e5e5e5e
80010c0c:	5e5e5e5e 	0x5e5e5e5e
80010c10:	5e000000 	0x5e000000
80010c14:	70616e69 	0x70616e69
80010c18:	63206174 	0x63206174
80010c1c:	2025733a 	addi	a1,at,29498
80010c20:	25643a20 	addiu	a0,t3,14880
80010c24:	00000000 	nop
80010c28:	Address 0xffffffff80010c28 is out of bounds.

Disassembly of section .rodata:

80010c30 <theFatalMsg>:
80010c30:	66617461 	0x66617461
80010c34:	6c206572 	0x6c206572
80010c38:	726f7220 	0x726f7220
80010c3c:	696e206c 	0x696e206c
80010c40:	705f5072 	0x705f5072
80010c44:	696e7421 	0x696e7421
	...
80010c50:	80010680 	lb	at,1664(zero)
80010c54:	80010688 	lb	at,1672(zero)
80010c58:	80010688 	lb	at,1672(zero)
80010c5c:	80010688 	lb	at,1672(zero)
80010c60:	80010688 	lb	at,1672(zero)
80010c64:	80010688 	lb	at,1672(zero)
80010c68:	80010688 	lb	at,1672(zero)
80010c6c:	80010688 	lb	at,1672(zero)
80010c70:	80010688 	lb	at,1672(zero)
80010c74:	80010688 	lb	at,1672(zero)
80010c78:	80010688 	lb	at,1672(zero)
80010c7c:	80010688 	lb	at,1672(zero)
80010c80:	80010688 	lb	at,1672(zero)
80010c84:	80010688 	lb	at,1672(zero)
80010c88:	80010688 	lb	at,1672(zero)
80010c8c:	80010688 	lb	at,1672(zero)
80010c90:	80010688 	lb	at,1672(zero)
80010c94:	80010688 	lb	at,1672(zero)
80010c98:	80010688 	lb	at,1672(zero)
80010c9c:	80010688 	lb	at,1672(zero)
80010ca0:	80010688 	lb	at,1672(zero)
80010ca4:	80010688 	lb	at,1672(zero)
80010ca8:	80010688 	lb	at,1672(zero)
80010cac:	80010688 	lb	at,1672(zero)
80010cb0:	80010688 	lb	at,1672(zero)
80010cb4:	80010688 	lb	at,1672(zero)
80010cb8:	80010688 	lb	at,1672(zero)
80010cbc:	80010688 	lb	at,1672(zero)
80010cc0:	80010688 	lb	at,1672(zero)
80010cc4:	80010688 	lb	at,1672(zero)
80010cc8:	80010688 	lb	at,1672(zero)
80010ccc:	80010688 	lb	at,1672(zero)
80010cd0:	80010688 	lb	at,1672(zero)
80010cd4:	80010688 	lb	at,1672(zero)
80010cd8:	80010688 	lb	at,1672(zero)
80010cdc:	80010688 	lb	at,1672(zero)
80010ce0:	80010688 	lb	at,1672(zero)
80010ce4:	80010688 	lb	at,1672(zero)
80010ce8:	80010688 	lb	at,1672(zero)
80010cec:	80010688 	lb	at,1672(zero)
80010cf0:	80010688 	lb	at,1672(zero)
80010cf4:	80010688 	lb	at,1672(zero)
80010cf8:	80010688 	lb	at,1672(zero)
80010cfc:	80010688 	lb	at,1672(zero)
80010d00:	80010688 	lb	at,1672(zero)
80010d04:	80010688 	lb	at,1672(zero)
80010d08:	80010688 	lb	at,1672(zero)
80010d0c:	80010688 	lb	at,1672(zero)
80010d10:	80010688 	lb	at,1672(zero)
80010d14:	80010688 	lb	at,1672(zero)
80010d18:	80010688 	lb	at,1672(zero)
80010d1c:	80010688 	lb	at,1672(zero)
80010d20:	80010688 	lb	at,1672(zero)
80010d24:	80010688 	lb	at,1672(zero)
80010d28:	80010688 	lb	at,1672(zero)
80010d2c:	80010688 	lb	at,1672(zero)
80010d30:	80010688 	lb	at,1672(zero)
80010d34:	80010688 	lb	at,1672(zero)
80010d38:	80010688 	lb	at,1672(zero)
80010d3c:	80010688 	lb	at,1672(zero)
80010d40:	80010688 	lb	at,1672(zero)
80010d44:	80010688 	lb	at,1672(zero)
80010d48:	80010688 	lb	at,1672(zero)
80010d4c:	80010688 	lb	at,1672(zero)
80010d50:	80010688 	lb	at,1672(zero)
80010d54:	80010688 	lb	at,1672(zero)
80010d58:	80010688 	lb	at,1672(zero)
80010d5c:	80010688 	lb	at,1672(zero)
80010d60:	80010390 	lb	at,912(zero)
80010d64:	80010688 	lb	at,1672(zero)
80010d68:	80010688 	lb	at,1672(zero)
80010d6c:	80010688 	lb	at,1672(zero)
80010d70:	80010688 	lb	at,1672(zero)
80010d74:	80010688 	lb	at,1672(zero)
80010d78:	80010688 	lb	at,1672(zero)
80010d7c:	80010688 	lb	at,1672(zero)
80010d80:	80010688 	lb	at,1672(zero)
80010d84:	80010688 	lb	at,1672(zero)
80010d88:	80010688 	lb	at,1672(zero)
80010d8c:	80010414 	lb	at,1044(zero)
80010d90:	80010688 	lb	at,1672(zero)
80010d94:	80010688 	lb	at,1672(zero)
80010d98:	80010688 	lb	at,1672(zero)
80010d9c:	80010688 	lb	at,1672(zero)
80010da0:	80010688 	lb	at,1672(zero)
80010da4:	80010488 	lb	at,1160(zero)
80010da8:	80010688 	lb	at,1672(zero)
80010dac:	80010688 	lb	at,1672(zero)
80010db0:	80010570 	lb	at,1392(zero)
80010db4:	80010688 	lb	at,1672(zero)
80010db8:	80010688 	lb	at,1672(zero)
80010dbc:	80010688 	lb	at,1672(zero)
80010dc0:	80010688 	lb	at,1672(zero)
80010dc4:	80010688 	lb	at,1672(zero)
80010dc8:	80010688 	lb	at,1672(zero)
80010dcc:	80010688 	lb	at,1672(zero)
80010dd0:	80010688 	lb	at,1672(zero)
80010dd4:	80010688 	lb	at,1672(zero)
80010dd8:	8001031c 	lb	at,796(zero)
80010ddc:	800105e8 	lb	at,1512(zero)
80010de0:	80010390 	lb	at,912(zero)
80010de4:	80010688 	lb	at,1672(zero)
80010de8:	80010688 	lb	at,1672(zero)
80010dec:	80010688 	lb	at,1672(zero)
80010df0:	80010688 	lb	at,1672(zero)
80010df4:	80010688 	lb	at,1672(zero)
80010df8:	80010688 	lb	at,1672(zero)
80010dfc:	80010688 	lb	at,1672(zero)
80010e00:	80010688 	lb	at,1672(zero)
80010e04:	80010688 	lb	at,1672(zero)
80010e08:	80010688 	lb	at,1672(zero)
80010e0c:	80010414 	lb	at,1044(zero)
80010e10:	80010688 	lb	at,1672(zero)
80010e14:	80010688 	lb	at,1672(zero)
80010e18:	80010688 	lb	at,1672(zero)
80010e1c:	80010634 	lb	at,1588(zero)
80010e20:	80010688 	lb	at,1672(zero)
80010e24:	80010488 	lb	at,1160(zero)
80010e28:	80010688 	lb	at,1672(zero)
80010e2c:	80010688 	lb	at,1672(zero)
80010e30:	800104fc 	lb	at,1276(zero)
	...
Disassembly of section .data.stk:

80010e40 <KERNEL_STACK>:
	...
Disassembly of section .pdr:

00000000 <.pdr>:
   0:	80010000 	lb	at,0(zero)
	...
  18:	0000001d 	0x1d
  1c:	0000001f 	0x1f
  20:	80010040 	lb	at,64(zero)
  24:	80000000 	lb	zero,0(zero)
  28:	fffffff8 	0xfffffff8
	...
  34:	00000018 	mult	zero,zero
  38:	0000001d 	0x1d
  3c:	0000001f 	0x1f
  40:	80010080 	lb	at,128(zero)
  44:	80000000 	lb	zero,0(zero)
  48:	fffffff8 	0xfffffff8
	...
  54:	00000018 	mult	zero,zero
  58:	0000001d 	0x1d
  5c:	0000001f 	0x1f
  60:	800100b0 	lb	at,176(zero)
	...
  78:	0000001d 	0x1d
  7c:	0000001f 	0x1f
  80:	800100c4 	lb	at,196(zero)
	...
  98:	0000001d 	0x1d
  9c:	0000001f 	0x1f
  a0:	800100d8 	lb	at,216(zero)
  a4:	80010000 	lb	at,0(zero)
  a8:	fffffffc 	0xfffffffc
	...
  b4:	00000018 	mult	zero,zero
  b8:	0000001d 	0x1d
  bc:	0000001f 	0x1f
  c0:	80010120 	lb	at,288(zero)
  c4:	803f0000 	lb	ra,0(at)
  c8:	fffffff8 	0xfffffff8
	...
  d4:	00000090 	0x90
  d8:	0000001d 	0x1d
  dc:	0000001f 	0x1f
  e0:	800106f4 	lb	at,1780(zero)
	...
  f8:	0000001d 	0x1d
  fc:	0000001f 	0x1f
 100:	80010770 	lb	at,1904(zero)
	...
 118:	0000001d 	0x1d
 11c:	0000001f 	0x1f
 120:	80010890 	lb	at,2192(zero)
	...
 138:	0000001d 	0x1d
 13c:	0000001f 	0x1f
 140:	80010a30 	lb	at,2608(zero)
 144:	80070000 	lb	a3,0(zero)
 148:	fffffffc 	0xfffffffc
	...
 154:	00000020 	add	zero,zero,zero
 158:	0000001d 	0x1d
 15c:	0000001f 	0x1f
 160:	80010ac8 	lb	at,2760(zero)
 164:	80000000 	lb	zero,0(zero)
 168:	fffffff8 	0xfffffff8
	...
 174:	00000020 	add	zero,zero,zero
 178:	0000001d 	0x1d
 17c:	0000001f 	0x1f
 180:	80010b08 	lb	at,2824(zero)
 184:	80010000 	lb	at,0(zero)
 188:	fffffffc 	0xfffffffc
	...
 194:	00000020 	add	zero,zero,zero
 198:	0000001d 	0x1d
 19c:	0000001f 	0x1f
Disassembly of section .comment:

00000000 <.comment>:
   0:	00474343 	0x474343
   4:	3a202847 	xori	zero,s1,0x2847
   8:	4e552920 	c3	0x552920
   c:	342e302e 	ori	t6,at,0x302e
  10:	30202844 	andi	zero,at,0x2844
  14:	454e5820 	0x454e5820
  18:	454c444b 	0x454c444b
  1c:	20342e31 	addi	s4,at,11825
  20:	20342e30 	addi	s4,at,11824
  24:	2e302900 	sltiu	s0,s1,10496
  28:	00474343 	0x474343
  2c:	3a202847 	xori	zero,s1,0x2847
  30:	4e552920 	c3	0x552920
  34:	342e302e 	ori	t6,at,0x302e
  38:	30202844 	andi	zero,at,0x2844
  3c:	454e5820 	0x454e5820
  40:	454c444b 	0x454c444b
  44:	20342e31 	addi	s4,at,11825
  48:	20342e30 	addi	s4,at,11824
  4c:	2e302900 	sltiu	s0,s1,10496
  50:	00474343 	0x474343
  54:	3a202847 	xori	zero,s1,0x2847
  58:	4e552920 	c3	0x552920
  5c:	342e302e 	ori	t6,at,0x302e
  60:	30202844 	andi	zero,at,0x2844
  64:	454e5820 	0x454e5820
  68:	454c444b 	0x454c444b
  6c:	20342e31 	addi	s4,at,11825
  70:	20342e30 	addi	s4,at,11824
  74:	2e302900 	sltiu	s0,s1,10496
  78:	00474343 	0x474343
  7c:	3a202847 	xori	zero,s1,0x2847
  80:	4e552920 	c3	0x552920
  84:	342e302e 	ori	t6,at,0x302e
  88:	30202844 	andi	zero,at,0x2844
  8c:	454e5820 	0x454e5820
  90:	454c444b 	0x454c444b
  94:	20342e31 	addi	s4,at,11825
  98:	20342e30 	addi	s4,at,11824
  9c:	2e302900 	sltiu	s0,s1,10496
  a0:	00474343 	0x474343
  a4:	3a202847 	xori	zero,s1,0x2847
  a8:	4e552920 	c3	0x552920
  ac:	342e302e 	ori	t6,at,0x302e
  b0:	30202844 	andi	zero,at,0x2844
  b4:	454e5820 	0x454e5820
  b8:	454c444b 	0x454c444b
  bc:	20342e31 	addi	s4,at,11825
  c0:	20342e30 	addi	s4,at,11824
  c4:	2e302900 	sltiu	s0,s1,10496
